target datalayout = "e-m:e-p270:32:32-p271:32:32-p272:64:64-i64:64-i128:128-f80:128-n8:16:32:64-S128"
target triple = "x86_64-pc-linux-gnu"

@_ZL19_subsystem_callback = internal global ptr null, align 8

; Function Attrs: mustprogress nounwind uwtable
define internal void @_ZL18do_unloading_klassP5Klass(ptr noundef %0) #1 {
  %2 = alloca ptr, align 8
  store ptr %0, ptr %2, align 8
  %3 = load ptr, ptr %2, align 8
  %4 = call noundef zeroext i1 @_ZN17JfrKlassUnloading9on_unloadEPK5Klass(ptr noundef %3)
  br i1 %4, label %5, label %11

5:                                                ; preds = %1
  %6 = load ptr, ptr @_ZL19_subsystem_callback, align 8
  %7 = load ptr, ptr %2, align 8
  %8 = load ptr, ptr %6, align 8
  %9 = getelementptr inbounds ptr, ptr %8, i64 0
  %10 = load ptr, ptr %9, align 8
  call void %10(ptr noundef nonnull align 8 dereferenceable(8) %6, ptr noundef %7)
  br label %11

11:                                               ; preds = %5, %1
  ret void
}