; Function Attrs: mustprogress nounwind uwtable
define internal void @_ZL18do_unloading_klassP5Klass(ptr noundef %0) #0 {
  %2 = tail call noundef zeroext i1 @_ZN17JfrKlassUnloading9on_unloadEPK5Klass(ptr noundef %0) #9
  br i1 %2, label %3, label %7

3:                                                ; preds = %1
  %4 = load ptr, ptr @_ZL19_subsystem_callback, align 8
  %5 = load ptr, ptr %4, align 8
  %6 = load ptr, ptr %5, align 8
  tail call void %6(ptr noundef nonnull align 8 dereferenceable(8) %4, ptr noundef %0) #9
  br label %7

7:                                                ; preds = %3, %1
  ret void
}